target datalayout = "e-m:e-p270:32:32-p271:32:32-p272:64:64-i64:64-i128:128-f80:128-n8:16:32:64-S128"
target triple = "x86_64-pc-linux-gnu"

@hf_zvt_pwd = internal global i32 0, align 4
@hf_zvt_reg_cfg = internal global i32 0, align 4
@hf_zvt_cc = internal global i32 0, align 4

; Function Attrs: inlinehint null_pointer_is_valid sspstrong uwtable
define internal i32 @dissect_zvt_cc(ptr noundef %0, i32 noundef %1, ptr noundef %2, ptr noundef %3) #4 {
  %5 = alloca ptr, align 8
  %6 = alloca i32, align 4
  %7 = alloca ptr, align 8
  %8 = alloca ptr, align 8
  store ptr %0, ptr %5, align 8
  store i32 %1, ptr %6, align 4
  store ptr %2, ptr %7, align 8
  store ptr %3, ptr %8, align 8
  %9 = load ptr, ptr %8, align 8
  %10 = load i32, ptr @hf_zvt_cc, align 4
  %11 = load ptr, ptr %5, align 8
  %12 = load i32, ptr %6, align 4
  %13 = call ptr @proto_tree_add_item(ptr noundef %9, i32 noundef %10, ptr noundef %11, i32 noundef %12, i32 noundef 2, i32 noundef 0)
  ret i32 2
}

; Function Attrs: null_pointer_is_valid sspstrong uwtable
define internal void @dissect_zvt_reg(ptr noundef %0, i32 noundef %1, i16 noundef zeroext %2, ptr noundef %3, ptr noundef %4, ptr noundef %5) #0 {
  %7 = alloca ptr, align 8
  %8 = alloca i32, align 4
  %9 = alloca i16, align 2
  %10 = alloca ptr, align 8
  %11 = alloca ptr, align 8
  %12 = alloca ptr, align 8
  store ptr %0, ptr %7, align 8
  store i32 %1, ptr %8, align 4
  store i16 %2, ptr %9, align 2
  store ptr %3, ptr %10, align 8
  store ptr %4, ptr %11, align 8
  store ptr %5, ptr %12, align 8
  %13 = load ptr, ptr %11, align 8
  %14 = load i32, ptr @hf_zvt_pwd, align 4
  %15 = load ptr, ptr %7, align 8
  %16 = load i32, ptr %8, align 4
  %17 = call ptr @proto_tree_add_item(ptr noundef %13, i32 noundef %14, ptr noundef %15, i32 noundef %16, i32 noundef 3, i32 noundef 0)
  %18 = load i32, ptr %8, align 4
  %19 = add i32 %18, 3
  store i32 %19, ptr %8, align 4
  %20 = load ptr, ptr %11, align 8
  %21 = load i32, ptr @hf_zvt_reg_cfg, align 4
  %22 = load ptr, ptr %7, align 8
  %23 = load i32, ptr %8, align 4
  %24 = call ptr @proto_tree_add_item(ptr noundef %20, i32 noundef %21, ptr noundef %22, i32 noundef %23, i32 noundef 1, i32 noundef 0)
  %25 = load i32, ptr %8, align 4
  %26 = add i32 %25, 1
  store i32 %26, ptr %8, align 4
  %27 = load ptr, ptr %7, align 8
  %28 = load i32, ptr %8, align 4
  %29 = call i32 @tvb_captured_length_remaining(ptr noundef %27, i32 noundef %28)
  %30 = icmp sge i32 %29, 2
  br i1 %30, label %31, label %39

31:                                               ; preds = %6
  %32 = load ptr, ptr %7, align 8
  %33 = load i32, ptr %8, align 4
  %34 = load ptr, ptr %10, align 8
  %35 = load ptr, ptr %11, align 8
  %36 = call i32 @dissect_zvt_cc(ptr noundef %32, i32 noundef %33, ptr noundef %34, ptr noundef %35)
  %37 = load i32, ptr %8, align 4
  %38 = add i32 %37, %36
  store i32 %38, ptr %8, align 4
  br label %39

39:                                               ; preds = %31, %6
  %40 = load ptr, ptr %7, align 8
  %41 = load i32, ptr %8, align 4
  %42 = load ptr, ptr %7, align 8
  %43 = load i32, ptr %8, align 4
  %44 = call i32 @tvb_captured_length_remaining(ptr noundef %42, i32 noundef %43)
  %45 = trunc i32 %44 to i16
  %46 = load ptr, ptr %10, align 8
  %47 = load ptr, ptr %11, align 8
  %48 = load ptr, ptr %12, align 8
  call void @dissect_zvt_bitmap_seq(ptr noundef %40, i32 noundef %41, i16 noundef zeroext %45, ptr noundef %46, ptr noundef %47, ptr noundef %48)
  ret void
}