; Function Attrs: null_pointer_is_valid sspstrong uwtable
define internal void @dissect_zvt_reg(ptr noundef %0, i32 noundef %1, i16 zeroext %2, ptr noundef %3, ptr noundef %4, ptr readnone captures(none) %5) #0 {
  %7 = load i32, ptr @hf_zvt_pwd, align 4
  %8 = tail call ptr @proto_tree_add_item(ptr noundef %4, i32 noundef %7, ptr noundef %0, i32 noundef %1, i32 noundef 3, i32 noundef 0)
  %9 = add i32 %1, 3
  %10 = load i32, ptr @hf_zvt_reg_cfg, align 4
  %11 = tail call ptr @proto_tree_add_item(ptr noundef %4, i32 noundef %10, ptr noundef %0, i32 noundef %9, i32 noundef 1, i32 noundef 0)
  %12 = add i32 %1, 4
  %13 = tail call i32 @tvb_captured_length_remaining(ptr noundef %0, i32 noundef %12)
  %14 = icmp sgt i32 %13, 1
  br i1 %14, label %15, label %19

15:                                               ; preds = %6
  %16 = load i32, ptr @hf_zvt_cc, align 4
  %17 = tail call ptr @proto_tree_add_item(ptr noundef %4, i32 noundef %16, ptr noundef %0, i32 noundef %12, i32 noundef 2, i32 noundef 0)
  %18 = add i32 %1, 6
  br label %19

19:                                               ; preds = %15, %6
  %.0 = phi i32 [ %18, %15 ], [ %12, %6 ]
  %20 = tail call i32 @tvb_captured_length_remaining(ptr noundef %0, i32 noundef %.0)
  %21 = trunc i32 %20 to i16
  tail call void @dissect_zvt_bitmap_seq(ptr noundef %0, i32 noundef %.0, i16 noundef zeroext %21, ptr noundef %3, ptr noundef %4, ptr poison)
  ret void
}